target datalayout = "e-m:e-p270:32:32-p271:32:32-p272:64:64-i64:64-i128:128-f80:128-n8:16:32:64-S128"
target triple = "x86_64-pc-linux-gnu"

%struct._packet_info = type { ptr, ptr, i32, i32, %struct.nstime_t, %struct.nstime_t, %struct.nstime_t, i32, ptr, ptr, ptr, ptr, %struct._address, %struct._address, %struct._address, %struct._address, %struct._address, %struct._address, i32, ptr, i32, %struct.anon, i32, i32, i32, i32, ptr, i32, ptr, ptr, i16, i16, i32, i32, i16, i32, i32, ptr, ptr, ptr, i8, i8, i16, i16, i16, i32, i16, i16, ptr, ptr, ptr, ptr, ptr, i32 }
%struct.nstime_t = type { i64, i32 }
%struct._address = type { i32, i32, ptr, ptr }
%struct.anon = type { i8, [3 x i8] }

@sdp_handle = internal global ptr null, align 8
@hf_diameter_3gpp_codec_data_dir = internal global i32 0, align 4
@hf_diameter_3gpp_codec_sdp_type = internal global i32 0, align 4
@.str.949 = private unnamed_addr constant [3 x i8] c"%s\00", align 1

; Function Attrs: nounwind uwtable
define internal i32 @dissect_diameter_3gpp_codec_data(ptr noundef %0, ptr noundef %1, ptr noundef %2, ptr noundef %3) #0 {
  %5 = alloca i32, align 4
  %6 = alloca ptr, align 8
  %7 = alloca ptr, align 8
  %8 = alloca ptr, align 8
  %9 = alloca ptr, align 8
  %10 = alloca i32, align 4
  %11 = alloca i32, align 4
  %12 = alloca i32, align 4
  %13 = alloca i32, align 4
  %14 = alloca ptr, align 8
  %15 = alloca ptr, align 8
  store ptr %0, ptr %6, align 8
  store ptr %1, ptr %7, align 8
  store ptr %2, ptr %8, align 8
  store ptr %3, ptr %9, align 8
  store i32 0, ptr %10, align 4
  %16 = load ptr, ptr %6, align 8
  %17 = call i32 @tvb_reported_length(ptr noundef %16)
  store i32 %17, ptr %13, align 4
  %18 = load ptr, ptr %6, align 8
  %19 = load i32, ptr %10, align 4
  %20 = call i32 @tvb_find_line_end(ptr noundef %18, i32 noundef %19, i32 noundef -1, ptr noundef %12, i32 noundef 0)
  store i32 %20, ptr %11, align 4
  %21 = load i32, ptr %11, align 4
  %22 = icmp slt i32 %21, 1
  br i1 %22, label %23, label %26

23:                                               ; preds = %4
  %24 = load ptr, ptr %6, align 8
  %25 = call i32 @tvb_reported_length(ptr noundef %24)
  store i32 %25, ptr %5, align 4
  br label %110

26:                                               ; preds = %4
  %27 = load ptr, ptr %7, align 8
  %28 = getelementptr inbounds %struct._packet_info, ptr %27, i32 0, i32 50
  %29 = load ptr, ptr %28, align 8
  %30 = load ptr, ptr %6, align 8
  %31 = load i32, ptr %10, align 4
  %32 = load i32, ptr %11, align 4
  %33 = call ptr @tvb_get_string_enc(ptr noundef %29, ptr noundef %30, i32 noundef %31, i32 noundef %32, i32 noundef 0)
  store ptr %33, ptr %14, align 8
  %34 = load ptr, ptr %8, align 8
  %35 = load i32, ptr @hf_diameter_3gpp_codec_data_dir, align 4
  %36 = load ptr, ptr %6, align 8
  %37 = load i32, ptr %10, align 4
  %38 = load i32, ptr %11, align 4
  %39 = load ptr, ptr %14, align 8
  %40 = load ptr, ptr %14, align 8
  %41 = call ptr (ptr, i32, ptr, i32, i32, ptr, ptr, ...) @proto_tree_add_string_format(ptr noundef %34, i32 noundef %35, ptr noundef %36, i32 noundef %37, i32 noundef %38, ptr noundef %39, ptr noundef @.str.949, ptr noundef %40)
  %42 = load i32, ptr %12, align 4
  %43 = load i32, ptr %13, align 4
  %44 = icmp sgt i32 %42, %43
  br i1 %44, label %45, label %48

45:                                               ; preds = %26
  %46 = load ptr, ptr %6, align 8
  %47 = call i32 @tvb_reported_length(ptr noundef %46)
  store i32 %47, ptr %5, align 4
  br label %110

48:                                               ; preds = %26
  %49 = load i32, ptr %12, align 4
  store i32 %49, ptr %10, align 4
  %50 = load ptr, ptr %6, align 8
  %51 = load i32, ptr %10, align 4
  %52 = call i32 @tvb_find_line_end(ptr noundef %50, i32 noundef %51, i32 noundef -1, ptr noundef %12, i32 noundef 0)
  store i32 %52, ptr %11, align 4
  %53 = load i32, ptr %11, align 4
  %54 = icmp slt i32 %53, 1
  br i1 %54, label %55, label %58

55:                                               ; preds = %48
  %56 = load ptr, ptr %6, align 8
  %57 = call i32 @tvb_reported_length(ptr noundef %56)
  store i32 %57, ptr %5, align 4
  br label %110

58:                                               ; preds = %48
  %59 = load ptr, ptr %7, align 8
  %60 = getelementptr inbounds %struct._packet_info, ptr %59, i32 0, i32 50
  %61 = load ptr, ptr %60, align 8
  %62 = load ptr, ptr %6, align 8
  %63 = load i32, ptr %10, align 4
  %64 = load i32, ptr %11, align 4
  %65 = call ptr @tvb_get_string_enc(ptr noundef %61, ptr noundef %62, i32 noundef %63, i32 noundef %64, i32 noundef 0)
  store ptr %65, ptr %14, align 8
  %66 = load ptr, ptr %8, align 8
  %67 = load i32, ptr @hf_diameter_3gpp_codec_sdp_type, align 4
  %68 = load ptr, ptr %6, align 8
  %69 = load i32, ptr %10, align 4
  %70 = load i32, ptr %11, align 4
  %71 = load ptr, ptr %14, align 8
  %72 = load ptr, ptr %14, align 8
  %73 = call ptr (ptr, i32, ptr, i32, i32, ptr, ptr, ...) @proto_tree_add_string_format(ptr noundef %66, i32 noundef %67, ptr noundef %68, i32 noundef %69, i32 noundef %70, ptr noundef %71, ptr noundef @.str.949, ptr noundef %72)
  %74 = load i32, ptr %12, align 4
  %75 = load i32, ptr %13, align 4
  %76 = icmp sge i32 %74, %75
  br i1 %76, label %77, label %80

77:                                               ; preds = %58
  %78 = load ptr, ptr %6, align 8
  %79 = call i32 @tvb_reported_length(ptr noundef %78)
  store i32 %79, ptr %5, align 4
  br label %110

80:                                               ; preds = %58
  %81 = load ptr, ptr @sdp_handle, align 8
  %82 = icmp ne ptr %81, null
  br i1 %82, label %83, label %107

83:                                               ; preds = %80
  br label %84

84:                                               ; preds = %91, %83
  %85 = load ptr, ptr %6, align 8
  %86 = load i32, ptr %13, align 4
  %87 = sub i32 %86, 1
  %88 = call zeroext i8 @tvb_get_guint8(ptr noundef %85, i32 noundef %87)
  %89 = zext i8 %88 to i32
  %90 = icmp eq i32 %89, 0
  br i1 %90, label %91, label %94

91:                                               ; preds = %84
  %92 = load i32, ptr %13, align 4
  %93 = add i32 %92, -1
  store i32 %93, ptr %13, align 4
  br label %84, !llvm.loop !4

94:                                               ; preds = %84
  %95 = load i32, ptr %12, align 4
  %96 = load i32, ptr %13, align 4
  %97 = sub i32 %96, %95
  store i32 %97, ptr %13, align 4
  %98 = load ptr, ptr %6, align 8
  %99 = load i32, ptr %12, align 4
  %100 = load i32, ptr %13, align 4
  %101 = call ptr @tvb_new_subset_length(ptr noundef %98, i32 noundef %99, i32 noundef %100)
  store ptr %101, ptr %15, align 8
  %102 = load ptr, ptr @sdp_handle, align 8
  %103 = load ptr, ptr %15, align 8
  %104 = load ptr, ptr %7, align 8
  %105 = load ptr, ptr %8, align 8
  %106 = call i32 @call_dissector(ptr noundef %102, ptr noundef %103, ptr noundef %104, ptr noundef %105)
  br label %107

107:                                              ; preds = %94, %80
  %108 = load ptr, ptr %6, align 8
  %109 = call i32 @tvb_reported_length(ptr noundef %108)
  store i32 %109, ptr %5, align 4
  br label %110

110:                                              ; preds = %107, %77, %55, %45, %23
  %111 = load i32, ptr %5, align 4
  ret i32 %111
}