; Function Attrs: nounwind uwtable
define internal i32 @dissect_diameter_3gpp_codec_data(ptr noundef %0, ptr noundef %1, ptr noundef %2, ptr readnone captures(none) %3) #0 {
  %5 = alloca i32, align 4
  %6 = tail call i32 @tvb_reported_length(ptr noundef %0) #3
  %7 = call i32 @tvb_find_line_end(ptr noundef %0, i32 noundef 0, i32 noundef -1, ptr noundef nonnull %5, i32 noundef 0) #3
  %8 = icmp slt i32 %7, 1
  br i1 %8, label %36, label %9

9:                                                ; preds = %4
  %10 = getelementptr inbounds nuw i8, ptr %1, i64 408
  %11 = load ptr, ptr %10, align 8
  %12 = call ptr @tvb_get_string_enc(ptr noundef %11, ptr noundef %0, i32 noundef 0, i32 noundef %7, i32 noundef 0) #3
  %13 = load i32, ptr @hf_diameter_3gpp_codec_data_dir, align 4
  %14 = call ptr (ptr, i32, ptr, i32, i32, ptr, ptr, ...) @proto_tree_add_string_format(ptr noundef %2, i32 noundef %13, ptr noundef %0, i32 noundef 0, i32 noundef %7, ptr noundef %12, ptr noundef nonnull @.str.949, ptr noundef %12) #3
  %15 = load i32, ptr %5, align 4
  %16 = icmp sgt i32 %15, %6
  br i1 %16, label %36, label %17

17:                                               ; preds = %9
  %18 = call i32 @tvb_find_line_end(ptr noundef %0, i32 noundef %15, i32 noundef -1, ptr noundef nonnull %5, i32 noundef 0) #3
  %19 = icmp slt i32 %18, 1
  br i1 %19, label %36, label %20

20:                                               ; preds = %17
  %21 = load ptr, ptr %10, align 8
  %22 = call ptr @tvb_get_string_enc(ptr noundef %21, ptr noundef %0, i32 noundef %15, i32 noundef %18, i32 noundef 0) #3
  %23 = load i32, ptr @hf_diameter_3gpp_codec_sdp_type, align 4
  %24 = call ptr (ptr, i32, ptr, i32, i32, ptr, ptr, ...) @proto_tree_add_string_format(ptr noundef %2, i32 noundef %23, ptr noundef %0, i32 noundef %15, i32 noundef %18, ptr noundef %22, ptr noundef nonnull @.str.949, ptr noundef %22) #3
  %25 = load i32, ptr %5, align 4
  %.not = icmp sge i32 %25, %6
  %26 = load ptr, ptr @sdp_handle, align 8
  %.not48 = icmp eq ptr %26, null
  %or.cond = select i1 %.not, i1 true, i1 %.not48
  br i1 %or.cond, label %36, label %.preheader

.preheader:                                       ; preds = %20, %.preheader
  %.043 = phi i32 [ %27, %.preheader ], [ %6, %20 ]
  %27 = add i32 %.043, -1
  %28 = call zeroext i8 @tvb_get_guint8(ptr noundef %0, i32 noundef %27) #3
  %29 = icmp eq i8 %28, 0
  br i1 %29, label %.preheader, label %30, !llvm.loop !4

30:                                               ; preds = %.preheader
  %31 = load i32, ptr %5, align 4
  %32 = sub i32 %.043, %31
  %33 = call ptr @tvb_new_subset_length(ptr noundef %0, i32 noundef %31, i32 noundef %32) #3
  %34 = load ptr, ptr @sdp_handle, align 8
  %35 = call i32 @call_dissector(ptr noundef %34, ptr noundef %33, ptr noundef %1, ptr noundef %2) #3
  br label %36

36:                                               ; preds = %30, %20, %17, %9, %4
  %37 = call i32 @tvb_reported_length(ptr noundef %0) #3
  ret i32 %37
}